target datalayout = "e-m:e-p270:32:32-p271:32:32-p272:64:64-i64:64-i128:128-f80:128-n8:16:32:64-S128"
target triple = "x86_64-pc-linux-gnu"

%struct.AVFilterContext = type { ptr, ptr, ptr, ptr, ptr, i32, ptr, ptr, i32, ptr, ptr, i32, i32, ptr, ptr, ptr, ptr, i32, ptr, i32, i32 }
%struct.BiquadsContext = type { ptr, i32, i32, i32, i32, i32, i32, i32, i32, double, double, double, double, ptr, %struct.AVChannelLayout, i32, i32, [3 x double], [3 x double], [3 x float], [3 x float], [3 x double], [3 x double], [3 x ptr], ptr, [2 x ptr], i32, i64, i32, ptr }
%struct.AVChannelLayout = type { i32, i32, %union.anon.1, ptr }
%union.anon.1 = type { i64 }
%struct.AVFilterLink = type { ptr, ptr, ptr, ptr, i32, i32, i32, i32, %struct.AVRational, i32, i32, i32, %struct.AVChannelLayout, %struct.AVRational, ptr, i32, %struct.AVFilterFormatsConfig, %struct.AVFilterFormatsConfig }
%struct.AVRational = type { i32, i32 }
%struct.AVFilterFormatsConfig = type { ptr, ptr, ptr, ptr, ptr }
%struct.AVFrame = type { [8 x ptr], [8 x i32], ptr, i32, i32, i32, i32, i32, %struct.AVRational, i64, i64, %struct.AVRational, i32, ptr, i32, i32, [8 x ptr], ptr, i32, ptr, i32, i32, i32, i32, i32, i32, i32, i64, ptr, i32, ptr, ptr, i64, i64, i64, i64, ptr, %struct.AVChannelLayout, i64 }
%struct.ThreadData = type { ptr, ptr, i32 }

@.str.58 = private unnamed_addr constant [4 x i8] c"all\00", align 1
@.str.98 = private unnamed_addr constant [51 x i8] c"Channel %d clipping %d times. Please reduce gain.\0A\00", align 1

; Function Attrs: nounwind uwtable
define internal i32 @filter_frame(ptr noundef %0, ptr noundef %1, i32 noundef %2) #1 {
  %4 = alloca i32, align 4
  %5 = alloca ptr, align 8
  %6 = alloca ptr, align 8
  %7 = alloca i32, align 4
  %8 = alloca ptr, align 8
  %9 = alloca ptr, align 8
  %10 = alloca ptr, align 8
  %11 = alloca ptr, align 8
  %12 = alloca %struct.ThreadData, align 8
  %13 = alloca i32, align 4
  %14 = alloca i32, align 4
  %15 = alloca i32, align 4
  %16 = alloca i32, align 4
  %17 = alloca i32, align 4
  %18 = alloca i64, align 8
  store ptr %0, ptr %5, align 8, !tbaa !40
  store ptr %1, ptr %6, align 8, !tbaa !43
  store i32 %2, ptr %7, align 4, !tbaa !31
  call void @llvm.lifetime.start.p0(i64 8, ptr %8) #11
  %19 = load ptr, ptr %5, align 8, !tbaa !40
  %20 = getelementptr inbounds nuw %struct.AVFilterLink, ptr %19, i32 0, i32 2
  %21 = load ptr, ptr %20, align 8, !tbaa !119
  store ptr %21, ptr %8, align 8, !tbaa !4
  call void @llvm.lifetime.start.p0(i64 8, ptr %9) #11
  %22 = load ptr, ptr %8, align 8, !tbaa !4
  %23 = getelementptr inbounds nuw %struct.AVFilterContext, ptr %22, i32 0, i32 9
  %24 = load ptr, ptr %23, align 8, !tbaa !9
  store ptr %24, ptr %9, align 8, !tbaa !22
  call void @llvm.lifetime.start.p0(i64 8, ptr %10) #11
  %25 = load ptr, ptr %8, align 8, !tbaa !4
  %26 = getelementptr inbounds nuw %struct.AVFilterContext, ptr %25, i32 0, i32 7
  %27 = load ptr, ptr %26, align 8, !tbaa !39
  %28 = getelementptr inbounds ptr, ptr %27, i64 0
  %29 = load ptr, ptr %28, align 8, !tbaa !40
  store ptr %29, ptr %10, align 8, !tbaa !40
  call void @llvm.lifetime.start.p0(i64 8, ptr %11) #11
  call void @llvm.lifetime.start.p0(i64 24, ptr %12) #11
  call void @llvm.lifetime.start.p0(i64 4, ptr %13) #11
  call void @llvm.lifetime.start.p0(i64 4, ptr %14) #11
  call void @llvm.lifetime.start.p0(i64 4, ptr %15) #11
  store i32 0, ptr %15, align 4, !tbaa !31
  %30 = load ptr, ptr %9, align 8, !tbaa !22
  %31 = getelementptr inbounds nuw %struct.BiquadsContext, ptr %30, i32 0, i32 8
  %32 = load i32, ptr %31, align 4, !tbaa !59
  %33 = icmp ne i32 %32, 0
  br i1 %33, label %34, label %38

34:                                               ; preds = %3
  %35 = load ptr, ptr %10, align 8, !tbaa !40
  %36 = load ptr, ptr %6, align 8, !tbaa !43
  %37 = call i32 @ff_filter_frame(ptr noundef %35, ptr noundef %36)
  store i32 %37, ptr %4, align 4
  store i32 1, ptr %16, align 4
  br label %211

38:                                               ; preds = %3
  %39 = load ptr, ptr %9, align 8, !tbaa !22
  %40 = getelementptr inbounds nuw %struct.BiquadsContext, ptr %39, i32 0, i32 14
  %41 = load ptr, ptr %5, align 8, !tbaa !40
  %42 = getelementptr inbounds nuw %struct.AVFilterLink, ptr %41, i32 0, i32 12
  %43 = call i32 @av_channel_layout_copy(ptr noundef %40, ptr noundef %42)
  store i32 %43, ptr %14, align 4, !tbaa !31
  %44 = load i32, ptr %14, align 4, !tbaa !31
  %45 = icmp slt i32 %44, 0
  br i1 %45, label %46, label %48

46:                                               ; preds = %38
  call void @av_frame_free(ptr noundef %6)
  %47 = load i32, ptr %14, align 4, !tbaa !31
  store i32 %47, ptr %4, align 4
  store i32 1, ptr %16, align 4
  br label %211

48:                                               ; preds = %38
  %49 = load ptr, ptr %9, align 8, !tbaa !22
  %50 = getelementptr inbounds nuw %struct.BiquadsContext, ptr %49, i32 0, i32 13
  %51 = load ptr, ptr %50, align 8, !tbaa !120
  %52 = call i32 @strcmp(ptr noundef %51, ptr noundef @.str.58) #13
  %53 = icmp ne i32 %52, 0
  br i1 %53, label %54, label %61

54:                                               ; preds = %48
  %55 = load ptr, ptr %9, align 8, !tbaa !22
  %56 = getelementptr inbounds nuw %struct.BiquadsContext, ptr %55, i32 0, i32 14
  %57 = load ptr, ptr %9, align 8, !tbaa !22
  %58 = getelementptr inbounds nuw %struct.BiquadsContext, ptr %57, i32 0, i32 13
  %59 = load ptr, ptr %58, align 8, !tbaa !120
  %60 = call i32 @av_channel_layout_from_string(ptr noundef %56, ptr noundef %59)
  br label %61

61:                                               ; preds = %54, %48
  %62 = load ptr, ptr %6, align 8, !tbaa !43
  %63 = call i32 @av_frame_is_writable(ptr noundef %62)
  %64 = icmp ne i32 %63, 0
  br i1 %64, label %65, label %72

65:                                               ; preds = %61
  %66 = load ptr, ptr %9, align 8, !tbaa !22
  %67 = getelementptr inbounds nuw %struct.BiquadsContext, ptr %66, i32 0, i32 7
  %68 = load i32, ptr %67, align 8, !tbaa !45
  %69 = icmp eq i32 %68, 0
  br i1 %69, label %70, label %72

70:                                               ; preds = %65
  %71 = load ptr, ptr %6, align 8, !tbaa !43
  store ptr %71, ptr %11, align 8, !tbaa !43
  br label %96

72:                                               ; preds = %65, %61
  %73 = load ptr, ptr %10, align 8, !tbaa !40
  %74 = load ptr, ptr %9, align 8, !tbaa !22
  %75 = getelementptr inbounds nuw %struct.BiquadsContext, ptr %74, i32 0, i32 7
  %76 = load i32, ptr %75, align 8, !tbaa !45
  %77 = icmp sgt i32 %76, 0
  br i1 %77, label %78, label %82

78:                                               ; preds = %72
  %79 = load ptr, ptr %9, align 8, !tbaa !22
  %80 = getelementptr inbounds nuw %struct.BiquadsContext, ptr %79, i32 0, i32 7
  %81 = load i32, ptr %80, align 8, !tbaa !45
  br label %86

82:                                               ; preds = %72
  %83 = load ptr, ptr %6, align 8, !tbaa !43
  %84 = getelementptr inbounds nuw %struct.AVFrame, ptr %83, i32 0, i32 5
  %85 = load i32, ptr %84, align 8, !tbaa !72
  br label %86

86:                                               ; preds = %82, %78
  %87 = phi i32 [ %81, %78 ], [ %85, %82 ]
  %88 = call ptr @ff_get_audio_buffer(ptr noundef %73, i32 noundef %87)
  store ptr %88, ptr %11, align 8, !tbaa !43
  %89 = load ptr, ptr %11, align 8, !tbaa !43
  %90 = icmp ne ptr %89, null
  br i1 %90, label %92, label %91

91:                                               ; preds = %86
  call void @av_frame_free(ptr noundef %6)
  store i32 -12, ptr %4, align 4
  store i32 1, ptr %16, align 4
  br label %211

92:                                               ; preds = %86
  %93 = load ptr, ptr %11, align 8, !tbaa !43
  %94 = load ptr, ptr %6, align 8, !tbaa !43
  %95 = call i32 @av_frame_copy_props(ptr noundef %93, ptr noundef %94)
  br label %96

96:                                               ; preds = %92, %70
  %97 = load ptr, ptr %9, align 8, !tbaa !22
  %98 = getelementptr inbounds nuw %struct.BiquadsContext, ptr %97, i32 0, i32 7
  %99 = load i32, ptr %98, align 8, !tbaa !45
  %100 = icmp sgt i32 %99, 0
  br i1 %100, label %101, label %107

101:                                              ; preds = %96
  %102 = load ptr, ptr %9, align 8, !tbaa !22
  %103 = getelementptr inbounds nuw %struct.BiquadsContext, ptr %102, i32 0, i32 27
  %104 = load i64, ptr %103, align 8, !tbaa !30
  %105 = icmp eq i64 %104, -9223372036854775808
  br i1 %105, label %106, label %107

106:                                              ; preds = %101
  store i32 1, ptr %15, align 4, !tbaa !31
  br label %107

107:                                              ; preds = %106, %101, %96
  %108 = load ptr, ptr %6, align 8, !tbaa !43
  %109 = getelementptr inbounds nuw %struct.ThreadData, ptr %12, i32 0, i32 0
  store ptr %108, ptr %109, align 8, !tbaa !121
  %110 = load ptr, ptr %11, align 8, !tbaa !43
  %111 = getelementptr inbounds nuw %struct.ThreadData, ptr %12, i32 0, i32 1
  store ptr %110, ptr %111, align 8, !tbaa !123
  %112 = load i32, ptr %7, align 4, !tbaa !31
  %113 = getelementptr inbounds nuw %struct.ThreadData, ptr %12, i32 0, i32 2
  store i32 %112, ptr %113, align 8, !tbaa !124
  %114 = load ptr, ptr %8, align 8, !tbaa !4
  %115 = load ptr, ptr %10, align 8, !tbaa !40
  %116 = getelementptr inbounds nuw %struct.AVFilterLink, ptr %115, i32 0, i32 12
  %117 = getelementptr inbounds nuw %struct.AVChannelLayout, ptr %116, i32 0, i32 1
  %118 = load i32, ptr %117, align 4, !tbaa !66
  %119 = load ptr, ptr %8, align 8, !tbaa !4
  %120 = call i32 @ff_filter_get_nb_threads(ptr noundef %119) #13
  %121 = icmp sgt i32 %118, %120
  br i1 %121, label %122, label %125

122:                                              ; preds = %107
  %123 = load ptr, ptr %8, align 8, !tbaa !4
  %124 = call i32 @ff_filter_get_nb_threads(ptr noundef %123) #13
  br label %130

125:                                              ; preds = %107
  %126 = load ptr, ptr %10, align 8, !tbaa !40
  %127 = getelementptr inbounds nuw %struct.AVFilterLink, ptr %126, i32 0, i32 12
  %128 = getelementptr inbounds nuw %struct.AVChannelLayout, ptr %127, i32 0, i32 1
  %129 = load i32, ptr %128, align 4, !tbaa !66
  br label %130

130:                                              ; preds = %125, %122
  %131 = phi i32 [ %124, %122 ], [ %129, %125 ]
  %132 = call i32 @ff_filter_execute(ptr noundef %114, ptr noundef @filter_channel, ptr noundef %12, ptr noundef null, i32 noundef %131)
  store i32 0, ptr %13, align 4, !tbaa !31
  br label %133

133:                                              ; preds = %166, %130
  %134 = load i32, ptr %13, align 4, !tbaa !31
  %135 = load ptr, ptr %10, align 8, !tbaa !40
  %136 = getelementptr inbounds nuw %struct.AVFilterLink, ptr %135, i32 0, i32 12
  %137 = getelementptr inbounds nuw %struct.AVChannelLayout, ptr %136, i32 0, i32 1
  %138 = load i32, ptr %137, align 4, !tbaa !66
  %139 = icmp slt i32 %134, %138
  br i1 %139, label %140, label %169

140:                                              ; preds = %133
  %141 = load ptr, ptr %9, align 8, !tbaa !22
  %142 = getelementptr inbounds nuw %struct.BiquadsContext, ptr %141, i32 0, i32 24
  %143 = load ptr, ptr %142, align 8, !tbaa !65
  %144 = load i32, ptr %13, align 4, !tbaa !31
  %145 = sext i32 %144 to i64
  %146 = getelementptr inbounds i32, ptr %143, i64 %145
  %147 = load i32, ptr %146, align 4, !tbaa !31
  %148 = icmp sgt i32 %147, 0
  br i1 %148, label %149, label %159

149:                                              ; preds = %140
  %150 = load ptr, ptr %8, align 8, !tbaa !4
  %151 = load i32, ptr %13, align 4, !tbaa !31
  %152 = load ptr, ptr %9, align 8, !tbaa !22
  %153 = getelementptr inbounds nuw %struct.BiquadsContext, ptr %152, i32 0, i32 24
  %154 = load ptr, ptr %153, align 8, !tbaa !65
  %155 = load i32, ptr %13, align 4, !tbaa !31
  %156 = sext i32 %155 to i64
  %157 = getelementptr inbounds i32, ptr %154, i64 %156
  %158 = load i32, ptr %157, align 4, !tbaa !31
  call void (ptr, i32, ptr, ...) @av_log(ptr noundef %150, i32 noundef 24, ptr noundef @.str.98, i32 noundef %151, i32 noundef %158)
  br label %159

159:                                              ; preds = %149, %140
  %160 = load ptr, ptr %9, align 8, !tbaa !22
  %161 = getelementptr inbounds nuw %struct.BiquadsContext, ptr %160, i32 0, i32 24
  %162 = load ptr, ptr %161, align 8, !tbaa !65
  %163 = load i32, ptr %13, align 4, !tbaa !31
  %164 = sext i32 %163 to i64
  %165 = getelementptr inbounds i32, ptr %162, i64 %164
  store i32 0, ptr %165, align 4, !tbaa !31
  br label %166

166:                                              ; preds = %159
  %167 = load i32, ptr %13, align 4, !tbaa !31
  %168 = add nsw i32 %167, 1
  store i32 %168, ptr %13, align 4, !tbaa !31
  br label %133, !llvm.loop !125

169:                                              ; preds = %133
  %170 = load ptr, ptr %9, align 8, !tbaa !22
  %171 = getelementptr inbounds nuw %struct.BiquadsContext, ptr %170, i32 0, i32 7
  %172 = load i32, ptr %171, align 8, !tbaa !45
  %173 = icmp sgt i32 %172, 0
  br i1 %173, label %174, label %197

174:                                              ; preds = %169
  call void @llvm.lifetime.start.p0(i64 4, ptr %17) #11
  %175 = load ptr, ptr %6, align 8, !tbaa !43
  %176 = getelementptr inbounds nuw %struct.AVFrame, ptr %175, i32 0, i32 5
  %177 = load i32, ptr %176, align 8, !tbaa !72
  store i32 %177, ptr %17, align 4, !tbaa !31
  call void @llvm.lifetime.start.p0(i64 8, ptr %18) #11
  %178 = load ptr, ptr %6, align 8, !tbaa !43
  %179 = getelementptr inbounds nuw %struct.AVFrame, ptr %178, i32 0, i32 9
  %180 = load i64, ptr %179, align 8, !tbaa !126
  store i64 %180, ptr %18, align 8, !tbaa !46
  %181 = load ptr, ptr %9, align 8, !tbaa !22
  %182 = getelementptr inbounds nuw %struct.BiquadsContext, ptr %181, i32 0, i32 27
  %183 = load i64, ptr %182, align 8, !tbaa !30
  %184 = load ptr, ptr %11, align 8, !tbaa !43
  %185 = getelementptr inbounds nuw %struct.AVFrame, ptr %184, i32 0, i32 9
  store i64 %183, ptr %185, align 8, !tbaa !126
  %186 = load ptr, ptr %9, align 8, !tbaa !22
  %187 = getelementptr inbounds nuw %struct.BiquadsContext, ptr %186, i32 0, i32 28
  %188 = load i32, ptr %187, align 8, !tbaa !127
  %189 = load ptr, ptr %11, align 8, !tbaa !43
  %190 = getelementptr inbounds nuw %struct.AVFrame, ptr %189, i32 0, i32 5
  store i32 %188, ptr %190, align 8, !tbaa !72
  %191 = load i64, ptr %18, align 8, !tbaa !46
  %192 = load ptr, ptr %9, align 8, !tbaa !22
  %193 = getelementptr inbounds nuw %struct.BiquadsContext, ptr %192, i32 0, i32 27
  store i64 %191, ptr %193, align 8, !tbaa !30
  %194 = load i32, ptr %17, align 4, !tbaa !31
  %195 = load ptr, ptr %9, align 8, !tbaa !22
  %196 = getelementptr inbounds nuw %struct.BiquadsContext, ptr %195, i32 0, i32 28
  store i32 %194, ptr %196, align 8, !tbaa !127
  call void @llvm.lifetime.end.p0(i64 8, ptr %18) #11
  call void @llvm.lifetime.end.p0(i64 4, ptr %17) #11
  br label %197

197:                                              ; preds = %174, %169
  %198 = load ptr, ptr %6, align 8, !tbaa !43
  %199 = load ptr, ptr %11, align 8, !tbaa !43
  %200 = icmp ne ptr %198, %199
  br i1 %200, label %201, label %202

201:                                              ; preds = %197
  call void @av_frame_free(ptr noundef %6)
  br label %202

202:                                              ; preds = %201, %197
  %203 = load i32, ptr %15, align 4, !tbaa !31
  %204 = icmp ne i32 %203, 0
  br i1 %204, label %209, label %205

205:                                              ; preds = %202
  %206 = load ptr, ptr %10, align 8, !tbaa !40
  %207 = load ptr, ptr %11, align 8, !tbaa !43
  %208 = call i32 @ff_filter_frame(ptr noundef %206, ptr noundef %207)
  store i32 %208, ptr %4, align 4
  store i32 1, ptr %16, align 4
  br label %211

209:                                              ; preds = %202
  call void @av_frame_free(ptr noundef %11)
  %210 = load ptr, ptr %8, align 8, !tbaa !4
  call void @ff_filter_set_ready(ptr noundef %210, i32 noundef 10)
  store i32 0, ptr %4, align 4
  store i32 1, ptr %16, align 4
  br label %211

211:                                              ; preds = %209, %205, %91, %46, %34
  call void @llvm.lifetime.end.p0(i64 4, ptr %15) #11
  call void @llvm.lifetime.end.p0(i64 4, ptr %14) #11
  call void @llvm.lifetime.end.p0(i64 4, ptr %13) #11
  call void @llvm.lifetime.end.p0(i64 24, ptr %12) #11
  call void @llvm.lifetime.end.p0(i64 8, ptr %11) #11
  call void @llvm.lifetime.end.p0(i64 8, ptr %10) #11
  call void @llvm.lifetime.end.p0(i64 8, ptr %9) #11
  call void @llvm.lifetime.end.p0(i64 8, ptr %8) #11
  %212 = load i32, ptr %4, align 4
  ret i32 %212
}