; Function Attrs: nounwind uwtable
define internal fastcc i32 @filter_frame(ptr noundef %0, ptr noundef %1, i32 noundef range(i32 0, 2) %2) unnamed_addr #2 {
  %4 = alloca ptr, align 8
  %5 = alloca ptr, align 8
  %6 = alloca %struct.ThreadData, align 8
  store ptr %1, ptr %4, align 8, !tbaa !35
  %7 = getelementptr inbounds nuw i8, ptr %0, i64 16
  %8 = load ptr, ptr %7, align 8, !tbaa !106
  %9 = getelementptr inbounds nuw i8, ptr %8, i64 72
  %10 = load ptr, ptr %9, align 8, !tbaa !4
  %11 = getelementptr inbounds nuw i8, ptr %8, i64 56
  %12 = load ptr, ptr %11, align 8, !tbaa !31
  %13 = load ptr, ptr %12, align 8, !tbaa !32
  call void @llvm.lifetime.start.p0(i64 8, ptr nonnull %5) #14
  call void @llvm.lifetime.start.p0(i64 24, ptr nonnull %6) #14
  %14 = getelementptr inbounds nuw i8, ptr %10, i64 36
  %15 = load i32, ptr %14, align 4, !tbaa !51
  %.not = icmp eq i32 %15, 0
  br i1 %.not, label %18, label %16

16:                                               ; preds = %3
  %17 = tail call i32 @ff_filter_frame(ptr noundef %13, ptr noundef %1) #14
  br label %93

18:                                               ; preds = %3
  %19 = getelementptr inbounds nuw i8, ptr %10, i64 80
  %20 = getelementptr inbounds nuw i8, ptr %0, i64 72
  %21 = tail call i32 @av_channel_layout_copy(ptr noundef nonnull %19, ptr noundef nonnull %20) #14
  %22 = icmp slt i32 %21, 0
  br i1 %22, label %23, label %24

23:                                               ; preds = %18
  call void @av_frame_free(ptr noundef nonnull %4) #14
  br label %93

24:                                               ; preds = %18
  %25 = getelementptr inbounds nuw i8, ptr %10, i64 72
  %26 = load ptr, ptr %25, align 8, !tbaa !107
  %27 = tail call i32 @strcmp(ptr noundef nonnull dereferenceable(1) %26, ptr noundef nonnull dereferenceable(4) @.str.58) #16
  %.not53 = icmp eq i32 %27, 0
  br i1 %.not53, label %30, label %28

28:                                               ; preds = %24
  %29 = tail call i32 @av_channel_layout_from_string(ptr noundef nonnull %19, ptr noundef nonnull %26) #14
  br label %30

30:                                               ; preds = %28, %24
  %31 = tail call i32 @av_frame_is_writable(ptr noundef %1) #14
  %.not54 = icmp ne i32 %31, 0
  %.phi.trans.insert = getelementptr inbounds nuw i8, ptr %10, i64 32
  %.pre = load i32, ptr %.phi.trans.insert, align 8, !tbaa !37
  %32 = icmp eq i32 %.pre, 0
  %or.cond = select i1 %.not54, i1 %32, i1 false
  br i1 %or.cond, label %.thread, label %._crit_edge60

.thread:                                          ; preds = %30
  store ptr %1, ptr %5, align 8, !tbaa !35
  br label %49

._crit_edge60:                                    ; preds = %30
  %33 = getelementptr inbounds nuw i8, ptr %10, i64 32
  %34 = icmp sgt i32 %.pre, 0
  br i1 %34, label %38, label %35

35:                                               ; preds = %._crit_edge60
  %36 = getelementptr inbounds nuw i8, ptr %1, i64 112
  %37 = load i32, ptr %36, align 8, !tbaa !65
  br label %38

38:                                               ; preds = %._crit_edge60, %35
  %39 = phi i32 [ %37, %35 ], [ %.pre, %._crit_edge60 ]
  %40 = tail call ptr @ff_get_audio_buffer(ptr noundef %13, i32 noundef %39) #14
  store ptr %40, ptr %5, align 8, !tbaa !35
  %.not55 = icmp eq ptr %40, null
  br i1 %.not55, label %41, label %42

41:                                               ; preds = %38
  call void @av_frame_free(ptr noundef nonnull %4) #14
  br label %93

42:                                               ; preds = %38
  %43 = tail call i32 @av_frame_copy_props(ptr noundef nonnull %40, ptr noundef %1) #14
  %.pre62 = load i32, ptr %33, align 8, !tbaa !37
  %44 = icmp sgt i32 %.pre62, 0
  br i1 %44, label %45, label %49

45:                                               ; preds = %42
  %46 = getelementptr inbounds nuw i8, ptr %10, i64 288
  %47 = load i64, ptr %46, align 8, !tbaa !26
  %48 = icmp ne i64 %47, -9223372036854775808
  br label %49

49:                                               ; preds = %.thread, %45, %42
  %50 = phi ptr [ %40, %42 ], [ %40, %45 ], [ %1, %.thread ]
  %.not57 = phi i1 [ true, %42 ], [ %48, %45 ], [ true, %.thread ]
  %51 = getelementptr inbounds nuw i8, ptr %10, i64 32
  store ptr %1, ptr %6, align 8, !tbaa !108
  %52 = getelementptr inbounds nuw i8, ptr %6, i64 8
  store ptr %50, ptr %52, align 8, !tbaa !110
  %53 = getelementptr inbounds nuw i8, ptr %6, i64 16
  store i32 %2, ptr %53, align 8, !tbaa !111
  %54 = getelementptr inbounds nuw i8, ptr %13, i64 76
  %55 = load i32, ptr %54, align 4, !tbaa !59
  %56 = tail call i32 @ff_filter_get_nb_threads(ptr noundef nonnull %8) #16
  %. = tail call i32 @llvm.smin.i32(i32 %55, i32 %56)
  %57 = call i32 @ff_filter_execute(ptr noundef nonnull %8, ptr noundef nonnull @filter_channel, ptr noundef nonnull %6, ptr noundef null, i32 noundef %.) #14
  %58 = load i32, ptr %54, align 4, !tbaa !59
  %59 = icmp sgt i32 %58, 0
  br i1 %59, label %.lr.ph, label %._crit_edge

.lr.ph:                                           ; preds = %49
  %60 = getelementptr inbounds nuw i8, ptr %10, i64 256
  %.pre63 = load ptr, ptr %60, align 8, !tbaa !58
  br label %61

61:                                               ; preds = %.lr.ph, %68
  %62 = phi ptr [ %.pre63, %.lr.ph ], [ %69, %68 ]
  %indvars.iv = phi i64 [ 0, %.lr.ph ], [ %indvars.iv.next, %68 ]
  %63 = getelementptr inbounds nuw i32, ptr %62, i64 %indvars.iv
  %64 = load i32, ptr %63, align 4, !tbaa !30
  %65 = icmp sgt i32 %64, 0
  br i1 %65, label %66, label %68

66:                                               ; preds = %61
  %67 = trunc nuw nsw i64 %indvars.iv to i32
  call void (ptr, i32, ptr, ...) @av_log(ptr noundef nonnull %8, i32 noundef 24, ptr noundef nonnull @.str.98, i32 noundef %67, i32 noundef %64) #14
  %.pre64 = load ptr, ptr %60, align 8, !tbaa !58
  br label %68

68:                                               ; preds = %66, %61
  %69 = phi ptr [ %.pre64, %66 ], [ %62, %61 ]
  %70 = getelementptr inbounds nuw i32, ptr %69, i64 %indvars.iv
  store i32 0, ptr %70, align 4, !tbaa !30
  %indvars.iv.next = add nuw nsw i64 %indvars.iv, 1
  %71 = load i32, ptr %54, align 4, !tbaa !59
  %72 = sext i32 %71 to i64
  %73 = icmp slt i64 %indvars.iv.next, %72
  br i1 %73, label %61, label %._crit_edge, !llvm.loop !112

._crit_edge:                                      ; preds = %68, %49
  %74 = load i32, ptr %51, align 8, !tbaa !37
  %75 = icmp sgt i32 %74, 0
  %.pre65 = load ptr, ptr %4, align 8, !tbaa !35
  br i1 %75, label %76, label %87

76:                                               ; preds = %._crit_edge
  %77 = getelementptr inbounds nuw i8, ptr %.pre65, i64 112
  %78 = load i32, ptr %77, align 8, !tbaa !65
  %79 = getelementptr inbounds nuw i8, ptr %.pre65, i64 136
  %80 = load i64, ptr %79, align 8, !tbaa !113
  %81 = getelementptr inbounds nuw i8, ptr %10, i64 288
  %82 = load i64, ptr %81, align 8, !tbaa !26
  %83 = getelementptr inbounds nuw i8, ptr %50, i64 136
  store i64 %82, ptr %83, align 8, !tbaa !113
  %84 = getelementptr inbounds nuw i8, ptr %10, i64 296
  %85 = load i32, ptr %84, align 8, !tbaa !114
  %86 = getelementptr inbounds nuw i8, ptr %50, i64 112
  store i32 %85, ptr %86, align 8, !tbaa !65
  store i64 %80, ptr %81, align 8, !tbaa !26
  store i32 %78, ptr %84, align 8, !tbaa !114
  br label %87

87:                                               ; preds = %76, %._crit_edge
  %.not56 = icmp eq ptr %.pre65, %50
  br i1 %.not56, label %89, label %88

88:                                               ; preds = %87
  call void @av_frame_free(ptr noundef nonnull %4) #14
  br label %89

89:                                               ; preds = %88, %87
  br i1 %.not57, label %90, label %92

90:                                               ; preds = %89
  %91 = call i32 @ff_filter_frame(ptr noundef nonnull %13, ptr noundef %50) #14
  br label %93

92:                                               ; preds = %89
  call void @av_frame_free(ptr noundef nonnull %5) #14
  call void @ff_filter_set_ready(ptr noundef nonnull %8, i32 noundef 10) #14
  br label %93

93:                                               ; preds = %92, %90, %41, %23, %16
  %.0 = phi i32 [ %17, %16 ], [ %21, %23 ], [ 0, %92 ], [ %91, %90 ], [ -12, %41 ]
  call void @llvm.lifetime.end.p0(i64 24, ptr nonnull %6) #14
  call void @llvm.lifetime.end.p0(i64 8, ptr nonnull %5) #14
  ret i32 %.0
}